target datalayout = "e-m:e-p270:32:32-p271:32:32-p272:64:64-i64:64-i128:128-f80:128-n8:16:32:64-S128"
target triple = "x86_64-pc-linux-gnu"

%struct.PyType_Slot = type { i32, ptr }
%struct.PyType_Spec = type { ptr, i32, i32, i32, ptr }

@.str.11 = private unnamed_addr constant [14 x i8] c"_testcapi.Sub\00", align 1
@.str.17 = private unnamed_addr constant [4 x i8] c"Oii\00", align 1
@__const.subclass_heaptype.slots = private unnamed_addr constant [2 x { i32, [4 x i8], ptr }] [{ i32, [4 x i8], ptr } { i32 64, [4 x i8] zeroinitializer, ptr @var_heaptype_methods }, { i32, [4 x i8], ptr } zeroinitializer], align 16

; Function Attrs: nounwind uwtable
define internal ptr @subclass_heaptype(ptr noundef %0, ptr noundef %1) #0 {
  %3 = alloca ptr, align 8
  %4 = alloca ptr, align 8
  %5 = alloca ptr, align 8
  %6 = alloca ptr, align 8
  %7 = alloca i32, align 4
  %8 = alloca i32, align 4
  %9 = alloca i32, align 4
  %10 = alloca [2 x %struct.PyType_Slot], align 16
  %11 = alloca %struct.PyType_Spec, align 8
  store ptr %0, ptr %3, align 8, !tbaa !3
  store ptr %1, ptr %4, align 8, !tbaa !3
  call void @llvm.lifetime.start.p0(i64 8, ptr %5) #7
  store ptr null, ptr %5, align 8, !tbaa !3
  call void @llvm.lifetime.start.p0(i64 8, ptr %6) #7
  call void @llvm.lifetime.start.p0(i64 4, ptr %7) #7
  call void @llvm.lifetime.start.p0(i64 4, ptr %8) #7
  call void @llvm.lifetime.start.p0(i64 4, ptr %9) #7
  %12 = load ptr, ptr %4, align 8, !tbaa !3
  %13 = call i32 (ptr, ptr, ...) @PyArg_ParseTuple(ptr noundef %12, ptr noundef @.str.17, ptr noundef %6, ptr noundef %7, ptr noundef %8)
  store i32 %13, ptr %9, align 4, !tbaa !8
  %14 = load i32, ptr %9, align 4, !tbaa !8
  %15 = icmp ne i32 %14, 0
  br i1 %15, label %17, label %16

16:                                               ; preds = %2
  br label %30

17:                                               ; preds = %2
  call void @llvm.memcpy.p0.p0.i64(ptr align 16 %10, ptr align 16 @__const.subclass_heaptype.slots, i64 32, i1 false)
  %18 = getelementptr inbounds nuw %struct.PyType_Spec, ptr %11, i32 0, i32 0
  store ptr @.str.11, ptr %18, align 8, !tbaa !10
  %19 = getelementptr inbounds nuw %struct.PyType_Spec, ptr %11, i32 0, i32 1
  %20 = load i32, ptr %7, align 4, !tbaa !8
  store i32 %20, ptr %19, align 8, !tbaa !13
  %21 = getelementptr inbounds nuw %struct.PyType_Spec, ptr %11, i32 0, i32 2
  %22 = load i32, ptr %8, align 4, !tbaa !8
  store i32 %22, ptr %21, align 4, !tbaa !14
  %23 = getelementptr inbounds nuw %struct.PyType_Spec, ptr %11, i32 0, i32 3
  store i32 0, ptr %23, align 8, !tbaa !15
  %24 = getelementptr i8, ptr %11, i64 20
  call void @llvm.memset.p0.i64(ptr align 4 %24, i8 0, i64 4, i1 false)
  %25 = getelementptr inbounds nuw %struct.PyType_Spec, ptr %11, i32 0, i32 4
  %26 = getelementptr inbounds [2 x %struct.PyType_Slot], ptr %10, i64 0, i64 0
  store ptr %26, ptr %25, align 8, !tbaa !16
  %27 = load ptr, ptr %3, align 8, !tbaa !3
  %28 = load ptr, ptr %6, align 8, !tbaa !3
  %29 = call ptr @PyType_FromMetaclass(ptr noundef null, ptr noundef %27, ptr noundef %11, ptr noundef %28)
  store ptr %29, ptr %5, align 8, !tbaa !3
  br label %30

30:                                               ; preds = %17, %16
  %31 = load ptr, ptr %5, align 8, !tbaa !3
  call void @llvm.lifetime.end.p0(i64 4, ptr %9) #7
  call void @llvm.lifetime.end.p0(i64 4, ptr %8) #7
  call void @llvm.lifetime.end.p0(i64 4, ptr %7) #7
  call void @llvm.lifetime.end.p0(i64 8, ptr %6) #7
  call void @llvm.lifetime.end.p0(i64 8, ptr %5) #7
  ret ptr %31
}