; Function Attrs: nounwind uwtable
define internal ptr @subclass_heaptype(ptr noundef %0, ptr noundef %1) #0 {
  %3 = alloca ptr, align 8
  %4 = alloca i32, align 4
  %5 = alloca i32, align 4
  %6 = alloca [2 x %struct.PyType_Slot], align 16
  %7 = alloca %struct.PyType_Spec, align 8
  call void @llvm.lifetime.start.p0(i64 8, ptr nonnull %3) #8
  call void @llvm.lifetime.start.p0(i64 4, ptr nonnull %4) #8
  call void @llvm.lifetime.start.p0(i64 4, ptr nonnull %5) #8
  %8 = call i32 (ptr, ptr, ...) @PyArg_ParseTuple(ptr noundef %1, ptr noundef nonnull @.str.17, ptr noundef nonnull %3, ptr noundef nonnull %4, ptr noundef nonnull %5) #8
  %.not = icmp eq i32 %8, 0
  br i1 %.not, label %19, label %9

9:                                                ; preds = %2
  call void @llvm.memcpy.p0.p0.i64(ptr noundef nonnull align 16 dereferenceable(32) %6, ptr noundef nonnull align 16 dereferenceable(32) @__const.subclass_heaptype.slots, i64 32, i1 false)
  store ptr @.str.11, ptr %7, align 8, !tbaa !3
  %10 = getelementptr inbounds nuw i8, ptr %7, i64 8
  %11 = load i32, ptr %4, align 4, !tbaa !10
  store i32 %11, ptr %10, align 8, !tbaa !11
  %12 = getelementptr inbounds nuw i8, ptr %7, i64 12
  %13 = load i32, ptr %5, align 4, !tbaa !10
  store i32 %13, ptr %12, align 4, !tbaa !12
  %14 = getelementptr inbounds nuw i8, ptr %7, i64 16
  store i32 0, ptr %14, align 8, !tbaa !13
  %15 = getelementptr inbounds nuw i8, ptr %7, i64 20
  store i32 0, ptr %15, align 4
  %16 = getelementptr inbounds nuw i8, ptr %7, i64 24
  store ptr %6, ptr %16, align 8, !tbaa !14
  %17 = load ptr, ptr %3, align 8, !tbaa !15
  %18 = call ptr @PyType_FromMetaclass(ptr noundef null, ptr noundef %0, ptr noundef nonnull %7, ptr noundef %17) #8
  br label %19

19:                                               ; preds = %2, %9
  %.0 = phi ptr [ %18, %9 ], [ null, %2 ]
  call void @llvm.lifetime.end.p0(i64 4, ptr nonnull %5) #8
  call void @llvm.lifetime.end.p0(i64 4, ptr nonnull %4) #8
  call void @llvm.lifetime.end.p0(i64 8, ptr nonnull %3) #8
  ret ptr %.0
}